target datalayout = "e-m:e-p270:32:32-p271:32:32-p272:64:64-i64:64-i128:128-f80:128-n8:16:32:64-S128"
target triple = "x86_64-pc-linux-gnu"

%struct.DdManager = type { %struct.DdNode, ptr, ptr, ptr, ptr, ptr, ptr, ptr, i32, i32, double, double, double, i32, i32, i32, i32, i32, i32, ptr, ptr, %struct.DdSubtable, i32, i32, i32, i32, i32, i32, i32, double, i32, i32, i32, ptr, i64, double, i32, ptr, ptr, ptr, ptr, ptr, ptr, ptr, i32, ptr, ptr, ptr, ptr, ptr, ptr, i32, i32, i32, double, i32, i32, i32, i32, double, double, i32, i32, i32, i32, i32, i32, i32, i32, i32, ptr, ptr, i32, i32, i32, i32, i32, i32, ptr, ptr, ptr, ptr, ptr, ptr, ptr, ptr, i32, i64, i64, i64, i32, i64, i64, double, double, double, double, double, double, i32, ptr, ptr, i64 }
%struct.DdNode = type { i32, i32, ptr, %union.anon, i64 }
%union.anon = type { %struct.DdChildren }
%struct.DdChildren = type { ptr, ptr }
%struct.DdSubtable = type { ptr, i32, i32, i32, i32, i32, i32, i32, i32, i32, i32, i32 }

; Function Attrs: nounwind uwtable
define ptr @Cudd_bddBooleanDiff(ptr noundef %0, ptr noundef %1, i32 noundef %2) #0 {
  %4 = alloca ptr, align 8
  %5 = alloca ptr, align 8
  %6 = alloca ptr, align 8
  %7 = alloca i32, align 4
  %8 = alloca ptr, align 8
  %9 = alloca ptr, align 8
  %10 = alloca i32, align 4
  store ptr %0, ptr %5, align 8, !tbaa !3
  store ptr %1, ptr %6, align 8, !tbaa !8
  store i32 %2, ptr %7, align 4, !tbaa !35
  call void @llvm.lifetime.start.p0(i64 8, ptr %8) #4
  call void @llvm.lifetime.start.p0(i64 8, ptr %9) #4
  %11 = load i32, ptr %7, align 4, !tbaa !35
  %12 = load ptr, ptr %5, align 8, !tbaa !3
  %13 = getelementptr inbounds nuw %struct.DdManager, ptr %12, i32 0, i32 15
  %14 = load i32, ptr %13, align 8, !tbaa !42
  %15 = icmp sge i32 %11, %14
  br i1 %15, label %16, label %23

16:                                               ; preds = %3
  %17 = load ptr, ptr %5, align 8, !tbaa !3
  %18 = getelementptr inbounds nuw %struct.DdManager, ptr %17, i32 0, i32 1
  %19 = load ptr, ptr %18, align 8, !tbaa !31
  %20 = ptrtoint ptr %19 to i64
  %21 = xor i64 %20, 1
  %22 = inttoptr i64 %21 to ptr
  store ptr %22, ptr %4, align 8
  store i32 1, ptr %10, align 4
  br label %48

23:                                               ; preds = %3
  %24 = load ptr, ptr %5, align 8, !tbaa !3
  %25 = getelementptr inbounds nuw %struct.DdManager, ptr %24, i32 0, i32 41
  %26 = load ptr, ptr %25, align 8, !tbaa !38
  %27 = load i32, ptr %7, align 4, !tbaa !35
  %28 = sext i32 %27 to i64
  %29 = getelementptr inbounds ptr, ptr %26, i64 %28
  %30 = load ptr, ptr %29, align 8, !tbaa !8
  store ptr %30, ptr %9, align 8, !tbaa !8
  br label %31

31:                                               ; preds = %41, %23
  %32 = load ptr, ptr %5, align 8, !tbaa !3
  %33 = getelementptr inbounds nuw %struct.DdManager, ptr %32, i32 0, i32 55
  store i32 0, ptr %33, align 8, !tbaa !28
  %34 = load ptr, ptr %5, align 8, !tbaa !3
  %35 = load ptr, ptr %6, align 8, !tbaa !8
  %36 = ptrtoint ptr %35 to i64
  %37 = and i64 %36, -2
  %38 = inttoptr i64 %37 to ptr
  %39 = load ptr, ptr %9, align 8, !tbaa !8
  %40 = call ptr @cuddBddBooleanDiffRecur(ptr noundef %34, ptr noundef %38, ptr noundef %39)
  store ptr %40, ptr %8, align 8, !tbaa !8
  br label %41

41:                                               ; preds = %31
  %42 = load ptr, ptr %5, align 8, !tbaa !3
  %43 = getelementptr inbounds nuw %struct.DdManager, ptr %42, i32 0, i32 55
  %44 = load i32, ptr %43, align 8, !tbaa !28
  %45 = icmp eq i32 %44, 1
  br i1 %45, label %31, label %46, !llvm.loop !43

46:                                               ; preds = %41
  %47 = load ptr, ptr %8, align 8, !tbaa !8
  store ptr %47, ptr %4, align 8
  store i32 1, ptr %10, align 4
  br label %48

48:                                               ; preds = %46, %16
  call void @llvm.lifetime.end.p0(i64 8, ptr %9) #4
  call void @llvm.lifetime.end.p0(i64 8, ptr %8) #4
  %49 = load ptr, ptr %4, align 8
  ret ptr %49
}