; Function Attrs: nounwind uwtable
define ptr @Cudd_bddBooleanDiff(ptr noundef %0, ptr noundef %1, i32 noundef %2) local_unnamed_addr #0 {
  %4 = getelementptr inbounds nuw i8, ptr %0, i64 136
  %5 = load i32, ptr %4, align 8, !tbaa !40
  %.not = icmp slt i32 %2, %5
  br i1 %.not, label %12, label %6

6:                                                ; preds = %3
  %7 = getelementptr inbounds nuw i8, ptr %0, i64 40
  %8 = load ptr, ptr %7, align 8, !tbaa !3
  %9 = ptrtoint ptr %8 to i64
  %10 = xor i64 %9, 1
  %11 = inttoptr i64 %10 to ptr
  br label %.loopexit

12:                                               ; preds = %3
  %13 = getelementptr inbounds nuw i8, ptr %0, i64 344
  %14 = load ptr, ptr %13, align 8, !tbaa !35
  %15 = sext i32 %2 to i64
  %16 = getelementptr inbounds ptr, ptr %14, i64 %15
  %17 = load ptr, ptr %16, align 8, !tbaa !36
  %18 = getelementptr inbounds nuw i8, ptr %0, i64 448
  %19 = ptrtoint ptr %1 to i64
  %20 = and i64 %19, -2
  %21 = inttoptr i64 %20 to ptr
  br label %22

22:                                               ; preds = %22, %12
  store i32 0, ptr %18, align 8, !tbaa !28
  %23 = tail call ptr @cuddBddBooleanDiffRecur(ptr noundef nonnull %0, ptr noundef %21, ptr noundef %17)
  %24 = load i32, ptr %18, align 8, !tbaa !28
  %25 = icmp eq i32 %24, 1
  br i1 %25, label %22, label %.loopexit, !llvm.loop !41

.loopexit:                                        ; preds = %22, %6
  %.0 = phi ptr [ %11, %6 ], [ %23, %22 ]
  ret ptr %.0
}